target datalayout = "e-m:e-p270:32:32-p271:32:32-p272:64:64-i64:64-i128:128-f80:128-n8:16:32:64-S128"
target triple = "x86_64-pc-linux-gnu"

%"class.llvm::SmallVectorBase" = type { ptr, i32, i32 }
%"class.clang::ASTStmtReader" = type <{ ptr, ptr, %"class.std::optional", [4 x i8] }>
%"class.std::optional" = type { %"struct.std::_Optional_base" }
%"struct.std::_Optional_base" = type { %"struct.std::_Optional_payload" }
%"struct.std::_Optional_payload" = type { %"struct.std::_Optional_payload_base.base", [3 x i8] }
%"struct.std::_Optional_payload_base.base" = type <{ %"union.std::_Optional_payload_base<clang::BitsUnpacker>::_Storage", i8 }>
%"union.std::_Optional_payload_base<clang::BitsUnpacker>::_Storage" = type { %"class.clang::BitsUnpacker" }
%"class.clang::BitsUnpacker" = type { i32, i32 }
%"class.clang::ASTRecordReader" = type { %"class.clang::serialization::DataStreamBasicReader", ptr, ptr, i32, %"class.llvm::SmallVector.4" }
%"class.clang::serialization::DataStreamBasicReader" = type { %"class.clang::serialization::BasicReaderBase" }
%"class.clang::serialization::BasicReaderBase" = type { ptr }
%"class.llvm::SmallVector.4" = type { %"class.llvm::SmallVectorImpl.5", %"struct.llvm::SmallVectorStorage.8" }
%"class.llvm::SmallVectorImpl.5" = type { %"class.llvm::SmallVectorTemplateBase.6" }
%"class.llvm::SmallVectorTemplateBase.6" = type { %"class.llvm::SmallVectorTemplateCommon.7" }
%"class.llvm::SmallVectorTemplateCommon.7" = type { %"class.llvm::SmallVectorBase" }
%"struct.llvm::SmallVectorStorage.8" = type { [512 x i8] }

; Function Attrs: mustprogress nounwind uwtable
define linkonce_odr hidden void @_ZN5clang15ASTRecordReader8skipIntsEj(ptr noundef nonnull align 8 dereferenceable(560) %0, i32 noundef %1) #0 comdat align 2 {
  %3 = alloca ptr, align 8
  %4 = alloca i32, align 4
  store ptr %0, ptr %3, align 8
  store i32 %1, ptr %4, align 4
  %5 = load ptr, ptr %3, align 8
  %6 = load i32, ptr %4, align 4
  %7 = getelementptr inbounds nuw %"class.clang::ASTRecordReader", ptr %5, i32 0, i32 3
  %8 = load i32, ptr %7, align 8
  %9 = add i32 %8, %6
  store i32 %9, ptr %7, align 8
  ret void
}

; Function Attrs: mustprogress nounwind uwtable
define dso_local void @_ZN5clang13ASTStmtReader9VisitStmtEPNS_4StmtE(ptr noundef nonnull align 8 dereferenceable(28) %0, ptr noundef %1) #0 align 2 {
  %3 = alloca ptr, align 8
  %4 = alloca ptr, align 8
  store ptr %0, ptr %3, align 8
  store ptr %1, ptr %4, align 8
  ret void
}

; Function Attrs: mustprogress nounwind uwtable
define dso_local void @_ZN5clang13ASTStmtReader26VisitOMPLoopBasedDirectiveEPNS_21OMPLoopBasedDirectiveE(ptr noundef nonnull align 8 dereferenceable(28) %0, ptr noundef %1) #0 align 2 {
  %3 = alloca ptr, align 8
  %4 = alloca ptr, align 8
  store ptr %0, ptr %3, align 8
  store ptr %1, ptr %4, align 8
  %5 = load ptr, ptr %3, align 8
  %6 = load ptr, ptr %4, align 8
  call void @_ZN5clang13ASTStmtReader9VisitStmtEPNS_4StmtE(ptr noundef nonnull align 8 dereferenceable(28) %5, ptr noundef %6)
  %7 = getelementptr inbounds nuw %"class.clang::ASTStmtReader", ptr %5, i32 0, i32 0
  %8 = load ptr, ptr %7, align 8
  call void @_ZN5clang15ASTRecordReader8skipIntsEj(ptr noundef nonnull align 8 dereferenceable(560) %8, i32 noundef 1)
  %9 = load ptr, ptr %4, align 8
  call void @_ZN5clang13ASTStmtReader27VisitOMPExecutableDirectiveEPNS_22OMPExecutableDirectiveE(ptr noundef nonnull align 8 dereferenceable(28) %5, ptr noundef %9)
  ret void
}

; Function Attrs: mustprogress nounwind uwtable
define dso_local void @_ZN5clang13ASTStmtReader21VisitOMPLoopDirectiveEPNS_16OMPLoopDirectiveE(ptr noundef nonnull align 8 dereferenceable(28) %0, ptr noundef %1) #0 align 2 {
  %3 = alloca ptr, align 8
  %4 = alloca ptr, align 8
  store ptr %0, ptr %3, align 8
  store ptr %1, ptr %4, align 8
  %5 = load ptr, ptr %3, align 8
  %6 = load ptr, ptr %4, align 8
  call void @_ZN5clang13ASTStmtReader26VisitOMPLoopBasedDirectiveEPNS_21OMPLoopBasedDirectiveE(ptr noundef nonnull align 8 dereferenceable(28) %5, ptr noundef %6)
  ret void
}

; Function Attrs: mustprogress nounwind uwtable
define dso_local void @_ZN5clang13ASTStmtReader29VisitOMPTaskLoopSimdDirectiveEPNS_24OMPTaskLoopSimdDirectiveE(ptr noundef nonnull align 8 dereferenceable(28) %0, ptr noundef %1) #0 align 2 {
  %3 = alloca ptr, align 8
  %4 = alloca ptr, align 8
  store ptr %0, ptr %3, align 8
  store ptr %1, ptr %4, align 8
  %5 = load ptr, ptr %3, align 8
  %6 = load ptr, ptr %4, align 8
  call void @_ZN5clang13ASTStmtReader21VisitOMPLoopDirectiveEPNS_16OMPLoopDirectiveE(ptr noundef nonnull align 8 dereferenceable(28) %5, ptr noundef %6)
  ret void
}